Certificate:
    Data:
        Version: 3 (0x2)
        Serial Number: 1 (0x1)
        Signature Algorithm: sha256WithRSAEncryption
        Issuer: C=US, ST=Maryland, L=Baltimore, O=Test CA, Limited, OU=Server Research Department, CN=Test CA/emailAddress=test@example.com
        Validity
            Not Before: Aug 18 16:20:02 2018 GMT
            Not After : May 14 16:20:02 2021 GMT
        Subject: C=US, ST=MD, L=Baltimore, O=Test Server, Limited, CN=Test Server
        Subject Public Key Info:
            Public Key Algorithm: rsaEncryption
            RSA Public Key: (2048 bit)
                Modulus (2048 bit):
                    00:d9:a2:fd:1d:f9:ab:14:62:d3:2e:ea:3a:c4:f7:
                    bd:07:88:2b:ad:55:21:22:7c:f8:d0:99:24:63:cb:
                    aa:c8:45:73:7f:3e:b9:67:e4:85:c0:11:05:81:05:
                    3e:f5:c8:ae:22:cd:56:31:28:84:4f:ca:5a:70:02:
                    e4:2c:e2:43:be:09:13:43:75:76:ec:0e:4a:35:ba:
                    01:19:fc:e6:f4:48:45:f2:05:3e:39:a2:f0:9d:15:
                    5a:6d:fe:f0:a7:b9:db:eb:10:32:02:43:33:18:c9:
                    81:00:34:0f:79:fb:85:16:da:b5:fa:f1:89:4a:d6:
                    d3:f0:93:5c:a7:29:22:8f:9c:6d:23:d2:8e:85:6b:
                    2d:16:b9:b3:be:13:72:02:0a:d9:35:5c:fc:82:a8:
                    79:f1:56:c0:41:19:c3:01:17:de:5a:1d:ac:d6:b9:
                    3c:25:27:94:83:c7:93:4b:5e:cd:d9:b1:73:3c:bd:
                    a6:8d:00:eb:e5:2d:a6:a9:09:5a:1a:41:2b:be:a7:
                    a7:c6:5b:d5:3d:ce:2b:74:e6:a5:8f:9c:78:50:15:
                    26:4a:22:86:5d:ca:78:bd:16:56:78:5f:2c:d8:c3:
                    98:8f:b5:6f:51:e0:df:f5:95:eb:02:d3:fe:46:a3:
                    94:08:0e:74:02:86:48:55:55:65:d0:8a:7d:bf:3c:
                    52:8b
                Exponent: 65537 (0x10001)
        X509v3 extensions:
            X509v3 Subject Key Identifier: 
                F7:7A:28:EF:01:E8:40:52:29:8A:31:29:5D:B0:59:53:0A:08:06:AA
            X509v3 Authority Key Identifier: 
                keyid:D2:02:F4:46:09:4B:14:C0:07:1D:B1:AF:01:42:E7:76:8D:9E:6C:B3

            X509v3 Basic Constraints: 
                CA:FALSE
            X509v3 Key Usage: 
                Digital Signature, Key Encipherment
            X509v3 Subject Alternative Name: 
                DNS:example.com, DNS:www.example.com, DNS:mail.example.com, DNS:ftp.example.com
            Netscape Comment: 
                OpenSSL Generated Certificate
    Signature Algorithm: sha256WithRSAEncryption
        8e:e1:fc:99:ac:df:31:36:6c:13:cb:81:96:07:56:4d:b5:38:
        14:1e:c6:fb:db:de:58:5b:27:9a:24:63:da:48:76:4d:60:e0:
        55:83:77:9d:b6:a6:5c:11:da:09:9f:a6:5d:b0:95:5b:6f:de:
        9d:5a:fd:a4:87:24:1f:4e:9f:f9:1d:a3:fa:3e:3f:ea:d3:fc:
        dd:39:c4:9e:8a:c1:36:33:78:4b:f4:54:13:09:70:47:c7:57:
        87:db:68:01:0b:79:98:af:c7:93:89:88:ad:c8:5b:82:dc:ef:
        74:29:c5:bd:27:65:3e:77:40:2b:48:66:09:5c:ea:c0:e1:11:
        31:53:17:43:a7:6d:43:0c:e9:ef:d2:6f:79:cf:fd:2e:01:cf:
        64:c1:1b:8e:c2:ee:0c:92:97:f9:35:d6:a2:6d:7d:c0:fd:8d:
        2d:d2:82:78:e4:8b:e9:cb:52:68:b6:e9:a4:de:b8:af:54:82:
        d5:dc:4d:53:60:80:06:44:f5:bf:7d:95:7d:8a:f2:34:f4:0b:
        ae:b1:6c:6c:47:08:18:41:ea:ad:0f:47:66:87:37:59:34:64:
        c1:48:2e:4e:c8:7c:71:c6:b8:6b:9b:eb:13:22:bb:18:54:e0:
        cd:df:fc:fd:02:45:11:7a:27:69:b2:b5:12:13:15:06:ce:54:
        03:79:8b:9d:db:fe:ba:09:c9:1f:d0:89:04:bc:59:57:fa:a1:
        3b:ab:05:51:06:ba:d1:7c:ba:58:52:18:13:60:4f:87:48:df:
        bc:91:7d:23:7a:66:3b:2e:9f:f4:cb:20:e5:d6:e9:31:bd:32:
        1f:20:ed:39:42:83:42:15:bb:ae:57:ac:a1:ec:5e:7e:09:a4:
        d1:e9:da:dc:a8:11:e3:d1:67:3f:9a:99:3b:de:06:7c:16:65:
        d6:19:c6:5f:27:9d:f9:f3:38:c9:98:a6:26:fd:4d:e5:70:5e:
        e0:d0:57:4e:c2:ba:6e:4e:71:2b:d2:f4:64:16:71:a9:39:5f:
        88:46:aa:1f:cb:c5:21:dc:ac:7e:a9:f0:18:1c:c3:27:2b:0b:
        80:85:df:b9:28:d6:e8:92:73:f5:07:77:3b:84:1c:bb:26:63:
        68:a2:f5:cf:17:15:59:fc:06:97:11:a2:3d:3d:f8:60:98:97:
        dc:12:65:a3:19:41:12:47:90:96:18:5d:89:fe:97:a4:7d:1b:
        d0:f0:9d:42:31:43:20:f0:00:35:17:87:37:35:03:83:f1:92:
        9f:d8:39:75:a6:19:34:69:a4:28:00:42:ad:5d:ef:af:2e:72:
        71:f5:d7:42:6e:46:77:59:93:67:f2:e6:01:78:bf:f4:33:a6:
        ef:df:ad:21:2b:77:86:5e
-----BEGIN CERTIFICATE-----
MIIFXDCCA0SgAwIBAgIBATANBgkqhkiG9w0BAQsFADCBpzELMAkGA1UEBhMCVVMx
ETAPBgNVBAgMCE1hcnlsYW5kMRIwEAYDVQQHDAlCYWx0aW1vcmUxGTAXBgNVBAoM
EFRlc3QgQ0EsIExpbWl0ZWQxIzAhBgNVBAsMGlNlcnZlciBSZXNlYXJjaCBEZXBh
cnRtZW50MRAwDgYDVQQDDAdUZXN0IENBMR8wHQYJKoZIhvcNAQkBFhB0ZXN0QGV4
YW1wbGUuY29tMB4XDTE4MDgxODE2MjAwMloXDTIxMDUxNDE2MjAwMlowYzELMAkG
A1UEBhMCVVMxCzAJBgNVBAgMAk1EMRIwEAYDVQQHDAlCYWx0aW1vcmUxHTAbBgNV
BAoMFFRlc3QgU2VydmVyLCBMaW1pdGVkMRQwEgYDVQQDDAtUZXN0IFNlcnZlcjCC
ASIwDQYJKoZIhvcNAQEBBQADggEPADCCAQoCggEBANmi/R35qxRi0y7qOsT3vQeI
K61VISJ8+NCZJGPLqshFc38+uWfkhcARBYEFPvXIriLNVjEohE/KWnAC5CziQ74J
E0N1duwOSjW6ARn85vRIRfIFPjmi8J0VWm3+8Ke52+sQMgJDMxjJgQA0D3n7hRba
tfrxiUrW0/CTXKcpIo+cbSPSjoVrLRa5s74TcgIK2TVc/IKoefFWwEEZwwEX3lod
rNa5PCUnlIPHk0tezdmxczy9po0A6+UtpqkJWhpBK76np8Zb1T3OK3TmpY+ceFAV
Jkoihl3KeL0WVnhfLNjDmI+1b1Hg3/WV6wLT/kajlAgOdAKGSFVVZdCKfb88UosC
AwEAAaOB1TCB0jAdBgNVHQ4EFgQU93oo7wHoQFIpijEpXbBZUwoIBqowHwYDVR0j
BBgwFoAU0gL0RglLFMAHHbGvAULndo2ebLMwCQYDVR0TBAIwADALBgNVHQ8EBAMC
BaAwSgYDVR0RBEMwQYILZXhhbXBsZS5jb22CD3d3dy5leGFtcGxlLmNvbYIQbWFp
bC5leGFtcGxlLmNvbYIPZnRwLmV4YW1wbGUuY29tMCwGCWCGSAGG+EIBDQQfFh1P
cGVuU1NMIEdlbmVyYXRlZCBDZXJ0aWZpY2F0ZTANBgkqhkiG9w0BAQsFAAOCAgEA
juH8mazfMTZsE8uBlgdWTbU4FB7G+9veWFsnmiRj2kh2TWDgVYN3nbamXBHaCZ+m
XbCVW2/enVr9pIckH06f+R2j+j4/6tP83TnEnorBNjN4S/RUEwlwR8dXh9toAQt5
mK/Hk4mIrchbgtzvdCnFvSdlPndAK0hmCVzqwOERMVMXQ6dtQwzp79Jvec/9LgHP
ZMEbjsLuDJKX+TXWom19wP2NLdKCeOSL6ctSaLbppN64r1SC1dxNU2CABkT1v32V
fYryNPQLrrFsbEcIGEHqrQ9HZoc3WTRkwUguTsh8cca4a5vrEyK7GFTgzd/8/QJF
EXonabK1EhMVBs5UA3mLndv+ugnJH9CJBLxZV/qhO6sFUQa60Xy6WFIYE2BPh0jf
vJF9I3pmOy6f9Msg5dbpMb0yHyDtOUKDQhW7rlesoexefgmk0ena3KgR49FnP5qZ
O94GfBZl1hnGXyed+fM4yZimJv1N5XBe4NBXTsK6bk5xK9L0ZBZxqTlfiEaqH8vF
IdysfqnwGBzDJysLgIXfuSjW6JJz9Qd3O4QcuyZjaKL1zxcVWfwGlxGiPT34YJiX
3BJloxlBEkeQlhhdif6XpH0b0PCdQjFDIPAANReHNzUDg/GSn9g5daYZNGmkKABC
rV3vry5ycfXXQm5Gd1mTZ/LmAXi/9DOm79+tISt3hl4=
-----END CERTIFICATE-----
