-----BEGIN CERTIFICATE-----
MIIGMzCCBBugAwIBAgIJAM2yKOMKXHLLMA0GCSqGSIb3DQEBCwUAMIGnMQswCQYD
VQQGEwJVUzERMA8GA1UECAwITWFyeWxhbmQxEjAQBgNVBAcMCUJhbHRpbW9yZTEZ
MBcGA1UECgwQVGVzdCBDQSwgTGltaXRlZDEjMCEGA1UECwwaU2VydmVyIFJlc2Vh
cmNoIERlcGFydG1lbnQxEDAOBgNVBAMMB1Rlc3QgQ0ExHzAdBgkqhkiG9w0BCQEW
EHRlc3RAZXhhbXBsZS5jb20wHhcNMTgwODE4MTU1ODE1WhcNMTgwOTE3MTU1ODE1
WjCBpzELMAkGA1UEBhMCVVMxETAPBgNVBAgMCE1hcnlsYW5kMRIwEAYDVQQHDAlC
YWx0aW1vcmUxGTAXBgNVBAoMEFRlc3QgQ0EsIExpbWl0ZWQxIzAhBgNVBAsMGlNl
cnZlciBSZXNlYXJjaCBEZXBhcnRtZW50MRAwDgYDVQQDDAdUZXN0IENBMR8wHQYJ
KoZIhvcNAQkBFhB0ZXN0QGV4YW1wbGUuY29tMIICIjANBgkqhkiG9w0BAQEFAAOC
Ag8AMIICCgKCAgEA6gPpfYAEd2vQWQET+IyNUFY9doHmfgG8x17lCXHOCq9CQAAK
knrPxYpvpBHWJMPQk0rGOaNfbMI+p1pAKptkUqTZiZkzOTai0SyGN+MJeV4UfWwB
JWNXQ7KQvgLM1i3PlGdv7tIYQh4s1NXdDBvUNn3u7zT9+lGmrKj0hgaekbRTJek7
h8BfOJUXbGW6QkHgRg4IAIZXPil7rYrtO+q975cJMhOx0puM3HFNE6aqEPKPFWlW
P6pQRaRjEs1OY56vPakR3BFj1N6MnGX9utcIeSfsqIMv5EpMgPkhu8KYvQ+WIIWV
UW77QNr2ihb0mb4hBjLPx8fjv5iG0QCYjMyv9AnBURo+SF6S4MOYa0H9yIwf+8cA
uwZExmka1ZfIF8BasGlD0AMsIw62faaxTeHdRQbzNOF3MpKOgW7RgLY1wRCDTTSE
bVo2xSTMVgCJ2oj4OuMy2XKlTAWfNi5X+7KwRfctD2eEIz9N6QYeKFPCzI/0T8ec
1HNjR4xUGHL8BGwpIVflYQM7k7BHRWPdQKUTkdMahf1fjlgvdv5zuqgki/IfS4ta
EOdATNDRyN01tOIjbPLZ6kizbTMqN3n1QuZoJ+VleZV2gO4B3JMLGlsZvl6SG7Mw
mqSK7FL0ByJhoDSayb40t/Uld1NyxfPuP/bJ8Pd+8bN0kD1w4NH4KRQj0XkCAwEA
AaNgMF4wHQYDVR0OBBYEFNIC9EYJSxTABx2xrwFC53aNnmyzMB8GA1UdIwQYMBaA
FNIC9EYJSxTABx2xrwFC53aNnmyzMA8GA1UdEwEB/wQFMAMBAf8wCwYDVR0PBAQD
AgEGMA0GCSqGSIb3DQEBCwUAA4ICAQBx/5flDpmFu6RL28CVvi3Q8teniDWU9LBD
hjPyENCV2qLLdoLYJRjCQuH0hTjiO+PGTbJ1byWXaqKI1te3UfS99krCrXR934mQ
sEW4wVFdzMB7Ppq/lKhq0LXq1FHYm+oU0BH83CVxOwcsit2WRKKp2CpM8HilCzvE
f/FGY1PCk1Xti4vFfjuAIt0SNLPt/cnDFBJ1dWvSszfISkm/btNNddfFw+tAvzQp
4SheIjrYorb3OtzDrxtRCwx0qaZYI6B3Tu0pW96hqMcYkkGTGXojm9lTvKwr0oJz
dRzmksvntD2KOllWnCvGPOv6MwK/nMroT4ds9HSD8owMxJSkZG52ct5ZQWDFzjPr
fKDs2BnW1CchS/NrrnvD0JjY7HfekGa2m5mwSzgCUfQazhUrljdYqTp7oRYkra76
QsATJVA7nQXihBh11874L6w2Kv3aUYGWnIJEIOc/eDG9yG+ujNd/WEwfiYAKQ+q5
A6zqyX/08zyAbIct2jxekq8dquwZM5xAB9fl/+dgZcRCYzE/K3kVkoLLRHMG9S/b
Oah14OZziTtJGrA2Pc9dPnCpegH0Tw9SbLgYWgK/MJYVfx7TTkVsVu94rhQYJwdJ
WV2y8JiDQ3MEfDZHJ5rsA8vkkzKwfm9qewLJzjAZw/ohbgwEYv7S84OO96EtrICo
NYPI9+ifiA==
-----END CERTIFICATE-----

  Certificate:
    Data:
        Version: 3 (0x2)
        Serial Number:
            cd:b2:28:e3:0a:5c:72:cb
        Signature Algorithm: sha256WithRSAEncryption
        Issuer: C=US, ST=Maryland, L=Baltimore, O=Test CA, Limited, OU=Server Research Department, CN=Test CA/emailAddress=test@example.com
        Validity
            Not Before: Aug 18 15:58:15 2018 GMT
            Not After : Sep 17 15:58:15 2018 GMT
        Subject: C=US, ST=Maryland, L=Baltimore, O=Test CA, Limited, OU=Server Research Department, CN=Test CA/emailAddress=test@example.com
        Subject Public Key Info:
            Public Key Algorithm: rsaEncryption
            RSA Public Key: (4096 bit)
                Modulus (4096 bit):
                    00:ea:03:e9:7d:80:04:77:6b:d0:59:01:13:f8:8c:
                    8d:50:56:3d:76:81:e6:7e:01:bc:c7:5e:e5:09:71:
                    ce:0a:af:42:40:00:0a:92:7a:cf:c5:8a:6f:a4:11:
                    d6:24:c3:d0:93:4a:c6:39:a3:5f:6c:c2:3e:a7:5a:
                    40:2a:9b:64:52:a4:d9:89:99:33:39:36:a2:d1:2c:
                    86:37:e3:09:79:5e:14:7d:6c:01:25:63:57:43:b2:
                    90:be:02:cc:d6:2d:cf:94:67:6f:ee:d2:18:42:1e:
                    2c:d4:d5:dd:0c:1b:d4:36:7d:ee:ef:34:fd:fa:51:
                    a6:ac:a8:f4:86:06:9e:91:b4:53:25:e9:3b:87:c0:
                    5f:38:95:17:6c:65:ba:42:41:e0:46:0e:08:00:86:
                    57:3e:29:7b:ad:8a:ed:3b:ea:bd:ef:97:09:32:13:
                    b1:d2:9b:8c:dc:71:4d:13:a6:aa:10:f2:8f:15:69:
                    56:3f:aa:50:45:a4:63:12:cd:4e:63:9e:af:3d:a9:
                    11:dc:11:63:d4:de:8c:9c:65:fd:ba:d7:08:79:27:
                    ec:a8:83:2f:e4:4a:4c:80:f9:21:bb:c2:98:bd:0f:
                    96:20:85:95:51:6e:fb:40:da:f6:8a:16:f4:99:be:
                    21:06:32:cf:c7:c7:e3:bf:98:86:d1:00:98:8c:cc:
                    af:f4:09:c1:51:1a:3e:48:5e:92:e0:c3:98:6b:41:
                    fd:c8:8c:1f:fb:c7:00:bb:06:44:c6:69:1a:d5:97:
                    c8:17:c0:5a:b0:69:43:d0:03:2c:23:0e:b6:7d:a6:
                    b1:4d:e1:dd:45:06:f3:34:e1:77:32:92:8e:81:6e:
                    d1:80:b6:35:c1:10:83:4d:34:84:6d:5a:36:c5:24:
                    cc:56:00:89:da:88:f8:3a:e3:32:d9:72:a5:4c:05:
                    9f:36:2e:57:fb:b2:b0:45:f7:2d:0f:67:84:23:3f:
                    4d:e9:06:1e:28:53:c2:cc:8f:f4:4f:c7:9c:d4:73:
                    63:47:8c:54:18:72:fc:04:6c:29:21:57:e5:61:03:
                    3b:93:b0:47:45:63:dd:40:a5:13:91:d3:1a:85:fd:
                    5f:8e:58:2f:76:fe:73:ba:a8:24:8b:f2:1f:4b:8b:
                    5a:10:e7:40:4c:d0:d1:c8:dd:35:b4:e2:23:6c:f2:
                    d9:ea:48:b3:6d:33:2a:37:79:f5:42:e6:68:27:e5:
                    65:79:95:76:80:ee:01:dc:93:0b:1a:5b:19:be:5e:
                    92:1b:b3:30:9a:a4:8a:ec:52:f4:07:22:61:a0:34:
                    9a:c9:be:34:b7:f5:25:77:53:72:c5:f3:ee:3f:f6:
                    c9:f0:f7:7e:f1:b3:74:90:3d:70:e0:d1:f8:29:14:
                    23:d1:79
                Exponent: 65537 (0x10001)
        X509v3 extensions:
            X509v3 Subject Key Identifier:
                D2:02:F4:46:09:4B:14:C0:07:1D:B1:AF:01:42:E7:76:8D:9E:6C:B3
            X509v3 Authority Key Identifier:
                keyid:D2:02:F4:46:09:4B:14:C0:07:1D:B1:AF:01:42:E7:76:8D:9E:6C:B3

            X509v3 Basic Constraints: critical
                CA:TRUE
            X509v3 Key Usage:
                Certificate Sign, CRL Sign
    Signature Algorithm: sha256WithRSAEncryption
        71:ff:97:e5:0e:99:85:bb:a4:4b:db:c0:95:be:2d:d0:f2:d7:
        a7:88:35:94:f4:b0:43:86:33:f2:10:d0:95:da:a2:cb:76:82:
        d8:25:18:c2:42:e1:f4:85:38:e2:3b:e3:c6:4d:b2:75:6f:25:
        97:6a:a2:88:d6:d7:b7:51:f4:bd:f6:4a:c2:ad:74:7d:df:89:
        90:b0:45:b8:c1:51:5d:cc:c0:7b:3e:9a:bf:94:a8:6a:d0:b5:
        ea:d4:51:d8:9b:ea:14:d0:11:fc:dc:25:71:3b:07:2c:8a:dd:
        96:44:a2:a9:d8:2a:4c:f0:78:a5:0b:3b:c4:7f:f1:46:63:53:
        c2:93:55:ed:8b:8b:c5:7e:3b:80:22:dd:12:34:b3:ed:fd:c9:
        c3:14:12:75:75:6b:d2:b3:37:c8:4a:49:bf:6e:d3:4d:75:d7:
        c5:c3:eb:40:bf:34:29:e1:28:5e:22:3a:d8:a2:b6:f7:3a:dc:
        c3:af:1b:51:0b:0c:74:a9:a6:58:23:a0:77:4e:ed:29:5b:de:
        a1:a8:c7:18:92:41:93:19:7a:23:9b:d9:53:bc:ac:2b:d2:82:
        73:75:1c:e6:92:cb:e7:b4:3d:8a:3a:59:56:9c:2b:c6:3c:eb:
        fa:33:02:bf:9c:ca:e8:4f:87:6c:f4:74:83:f2:8c:0c:c4:94:
        a4:64:6e:76:72:de:59:41:60:c5:ce:33:eb:7c:a0:ec:d8:19:
        d6:d4:27:21:4b:f3:6b:ae:7b:c3:d0:98:d8:ec:77:de:90:66:
        b6:9b:99:b0:4b:38:02:51:f4:1a:ce:15:2b:96:37:58:a9:3a:
        7b:a1:16:24:ad:ae:fa:42:c0:13:25:50:3b:9d:05:e2:84:18:
        75:d7:ce:f8:2f:ac:36:2a:fd:da:51:81:96:9c:82:44:20:e7:
        3f:78:31:bd:c8:6f:ae:8c:d7:7f:58:4c:1f:89:80:0a:43:ea:
        b9:03:ac:ea:c9:7f:f4:f3:3c:80:6c:87:2d:da:3c:5e:92:af:
        1d:aa:ec:19:33:9c:40:07:d7:e5:ff:e7:60:65:c4:42:63:31:
        3f:2b:79:15:92:82:cb:44:73:06:f5:2f:db:39:a8:75:e0:e6:
        73:89:3b:49:1a:b0:36:3d:cf:5d:3e:70:a9:7a:01:f4:4f:0f:
        52:6c:b8:18:5a:02:bf:30:96:15:7f:1e:d3:4e:45:6c:56:ef:
        78:ae:14:18:27:07:49:59:5d:b2:f0:98:83:43:73:04:7c:36:
        47:27:9a:ec:03:cb:e4:93:32:b0:7e:6f:6a:7b:02:c9:ce:30:
        19:c3:fa:21:6e:0c:04:62:fe:d2:f3:83:8e:f7:a1:2d:ac:80:
        a8:35:83:c8:f7:e8:9f:88
