-----BEGIN CERTIFICATE REQUEST-----
MIIDkDCCAngCAQAwgYQxCzAJBgNVBAYTAlVTMQswCQYDVQQIDAJNRDESMBAGA1UE
BwwJQmFsdGltb3JlMR0wGwYDVQQKDBRUZXN0IFNlcnZlciwgTGltaXRlZDEUMBIG
A1UEAwwLVGVzdCBTZXJ2ZXIxHzAdBgkqhkiG9w0BCQEWEHRlc3RAZXhhbXBsZS5j
b20wggEiMA0GCSqGSIb3DQEBAQUAA4IBDwAwggEKAoIBAQDZov0d+asUYtMu6jrE
970HiCutVSEifPjQmSRjy6rIRXN/Prln5IXAEQWBBT71yK4izVYxKIRPylpwAuQs
4kO+CRNDdXbsDko1ugEZ/Ob0SEXyBT45ovCdFVpt/vCnudvrEDICQzMYyYEANA95
+4UW2rX68YlK1tPwk1ynKSKPnG0j0o6Fay0WubO+E3ICCtk1XPyCqHnxVsBBGcMB
F95aHazWuTwlJ5SDx5NLXs3ZsXM8vaaNAOvlLaapCVoaQSu+p6fGW9U9zit05qWP
nHhQFSZKIoZdyni9FlZ4XyzYw5iPtW9R4N/1lesC0/5Go5QIDnQChkhVVWXQin2/
PFKLAgMBAAGggcUwgcIGCSqGSIb3DQEJDjGBtDCBsTAdBgNVHQ4EFgQU93oo7wHo
QFIpijEpXbBZUwoIBqowCQYDVR0TBAIwADALBgNVHQ8EBAMCBaAwSgYDVR0RBEMw
QYILZXhhbXBsZS5jb22CD3d3dy5leGFtcGxlLmNvbYIQbWFpbC5leGFtcGxlLmNv
bYIPZnRwLmV4YW1wbGUuY29tMCwGCWCGSAGG+EIBDQQfFh1PcGVuU1NMIEdlbmVy
YXRlZCBDZXJ0aWZpY2F0ZTANBgkqhkiG9w0BAQsFAAOCAQEABZfll+fusJd2Ia/f
TYk7WdCsyz1/iRrHI4psW4yZSi+kcWSj5XWbeqRtrOKATVLOr56xT1Awr3BgU0H+
5l8ERFwBgznyZru9H2C0K1iDa7/y+8WR/Xsyd2aMmGWWPLj6Nm5275o9C+809XGS
3QRcFWWeLWcotCqmzRIxu+PHLJDjBDcpCcESWVrV8XJjP+j7mYteXfNj/NJIiHwB
MTi35S3Mm1d7exsHWvUOItWfuo/obWEULujzjcWjFZKDj6ZWpfyDBUsXt2xY+3Ia
VOUbvf5m5/Lg5kEsF/dHDq6sqwKGpP4jg35LUQf6ouMHl9oydq070RM842f8sMnQ
VCRsEQ==
-----END CERTIFICATE REQUEST-----

  Certificate Request:
    Data:
        Version: 0 (0x0)
        Subject: C=US, ST=MD, L=Baltimore, O=Test Server, Limited, CN=Test Server/emailAddress=test@example.com
        Subject Public Key Info:
            Public Key Algorithm: rsaEncryption
            RSA Public Key: (2048 bit)
                Modulus (2048 bit):
                    00:d9:a2:fd:1d:f9:ab:14:62:d3:2e:ea:3a:c4:f7:
                    bd:07:88:2b:ad:55:21:22:7c:f8:d0:99:24:63:cb:
                    aa:c8:45:73:7f:3e:b9:67:e4:85:c0:11:05:81:05:
                    3e:f5:c8:ae:22:cd:56:31:28:84:4f:ca:5a:70:02:
                    e4:2c:e2:43:be:09:13:43:75:76:ec:0e:4a:35:ba:
                    01:19:fc:e6:f4:48:45:f2:05:3e:39:a2:f0:9d:15:
                    5a:6d:fe:f0:a7:b9:db:eb:10:32:02:43:33:18:c9:
                    81:00:34:0f:79:fb:85:16:da:b5:fa:f1:89:4a:d6:
                    d3:f0:93:5c:a7:29:22:8f:9c:6d:23:d2:8e:85:6b:
                    2d:16:b9:b3:be:13:72:02:0a:d9:35:5c:fc:82:a8:
                    79:f1:56:c0:41:19:c3:01:17:de:5a:1d:ac:d6:b9:
                    3c:25:27:94:83:c7:93:4b:5e:cd:d9:b1:73:3c:bd:
                    a6:8d:00:eb:e5:2d:a6:a9:09:5a:1a:41:2b:be:a7:
                    a7:c6:5b:d5:3d:ce:2b:74:e6:a5:8f:9c:78:50:15:
                    26:4a:22:86:5d:ca:78:bd:16:56:78:5f:2c:d8:c3:
                    98:8f:b5:6f:51:e0:df:f5:95:eb:02:d3:fe:46:a3:
                    94:08:0e:74:02:86:48:55:55:65:d0:8a:7d:bf:3c:
                    52:8b
                Exponent: 65537 (0x10001)
        Attributes:
        Requested Extensions:
            X509v3 Subject Key Identifier:
                F7:7A:28:EF:01:E8:40:52:29:8A:31:29:5D:B0:59:53:0A:08:06:AA
            X509v3 Basic Constraints:
                CA:FALSE
            X509v3 Key Usage:
                Digital Signature, Key Encipherment
            X509v3 Subject Alternative Name:
                DNS:example.com, DNS:www.example.com, DNS:mail.example.com, DNS:ftp.example.com
            Netscape Comment:
                OpenSSL Generated Certificate
    Signature Algorithm: sha256WithRSAEncryption
        05:97:e5:97:e7:ee:b0:97:76:21:af:df:4d:89:3b:59:d0:ac:
        cb:3d:7f:89:1a:c7:23:8a:6c:5b:8c:99:4a:2f:a4:71:64:a3:
        e5:75:9b:7a:a4:6d:ac:e2:80:4d:52:ce:af:9e:b1:4f:50:30:
        af:70:60:53:41:fe:e6:5f:04:44:5c:01:83:39:f2:66:bb:bd:
        1f:60:b4:2b:58:83:6b:bf:f2:fb:c5:91:fd:7b:32:77:66:8c:
        98:65:96:3c:b8:fa:36:6e:76:ef:9a:3d:0b:ef:34:f5:71:92:
        dd:04:5c:15:65:9e:2d:67:28:b4:2a:a6:cd:12:31:bb:e3:c7:
        2c:90:e3:04:37:29:09:c1:12:59:5a:d5:f1:72:63:3f:e8:fb:
        99:8b:5e:5d:f3:63:fc:d2:48:88:7c:01:31:38:b7:e5:2d:cc:
        9b:57:7b:7b:1b:07:5a:f5:0e:22:d5:9f:ba:8f:e8:6d:61:14:
        2e:e8:f3:8d:c5:a3:15:92:83:8f:a6:56:a5:fc:83:05:4b:17:
        b7:6c:58:fb:72:1a:54:e5:1b:bd:fe:66:e7:f2:e0:e6:41:2c:
        17:f7:47:0e:ae:ac:ab:02:86:a4:fe:23:83:7e:4b:51:07:fa:
        a2:e3:07:97:da:32:76:ad:3b:d1:13:3c:e3:67:fc:b0:c9:d0:
        54:24:6c:11
